ARM GAS  C:\Users\JEANPI~1\AppData\Local\Temp\cc5znvOb.s 			page 1


   1              		.syntax unified
   2              		.cpu cortex-m3
   3              		.fpu softvfp
   4              		.eabi_attribute 20, 1
   5              		.eabi_attribute 21, 1
   6              		.eabi_attribute 23, 3
   7              		.eabi_attribute 24, 1
   8              		.eabi_attribute 25, 1
   9              		.eabi_attribute 26, 1
  10              		.eabi_attribute 30, 1
  11              		.eabi_attribute 34, 1
  12              		.eabi_attribute 18, 4
  13              		.thumb
  14              		.syntax unified
  15              		.file	"main.c"
  16              		.text
  17              	.Ltext0:
  18              		.cfi_sections	.debug_frame
  19              		.section	.text.Get_voltage_shunt,"ax",%progbits
  20              		.align	2
  21              		.global	Get_voltage_shunt
  22              		.thumb
  23              		.thumb_func
  24              		.type	Get_voltage_shunt, %function
  25              	Get_voltage_shunt:
  26              	.LFB63:
  27              		.file 1 "main.c"
   1:main.c        **** /* ========================================
   2:main.c        ****  *
   3:main.c        ****  * Copyright YOUR COMPANY, THE YEAR
   4:main.c        ****  * All Rights Reserved
   5:main.c        ****  * UNPUBLISHED, LICENSED SOFTWARE.
   6:main.c        ****  *
   7:main.c        ****  * CONFIDENTIAL AND PROPRIETARY INFORMATION
   8:main.c        ****  * WHICH IS THE PROPERTY OF your company.
   9:main.c        ****  *
  10:main.c        ****  * ========================================
  11:main.c        **** */
  12:main.c        **** #include "project.h"
  13:main.c        **** #define SlaveAddress 0x40      //Dirección esclavo; esclavo=Recibe la señal de sincronismo y ejec
  14:main.c        **** uint8 result,i,Tabla[4],valorpotencia;
  15:main.c        **** uint16 angulo;
  16:main.c        **** uint16 voltaje_shunt,voltaje_shunt2,vbus,vbus2,Datos2,Datos,corriente,potencia;
  17:main.c        **** int flag;
  18:main.c        **** float factor_lsb_Corriente;
  19:main.c        **** uint8 h=8,g=6;
  20:main.c        **** uint8 vs1,vs2;
  21:main.c        **** 
  22:main.c        **** const uint8 string2[4]="0123";
  23:main.c        **** 
  24:main.c        **** //SDA= Aquí viajan los datos como tal 
  25:main.c        **** //I2C es un protocolo síncrono. I2C usa solo 2 cables, 
  26:main.c        **** //uno para el reloj (SCL) y otro para el dato (SDA). 
  27:main.c        **** //Esto significa que el maestro y el esclavo envían datos por el mismo cable, 
  28:main.c        **** //el cual es controlado por el maestro, que crea la señal de reloj.
  29:main.c        **** //I2C no utiliza selección de esclavo, sino direccionamiento.
  30:main.c        **** 
ARM GAS  C:\Users\JEANPI~1\AppData\Local\Temp\cc5znvOb.s 			page 2


  31:main.c        **** //CY_ISR(Rx){
  32:main.c        **** //
  33:main.c        **** //    char Value_Init;
  34:main.c        **** //    Value_Init=UART_GetChar();
  35:main.c        **** //    if(Value_Init == 'a'){
  36:main.c        **** //      flag=1;
  37:main.c        **** //    
  38:main.c        **** //    }
  39:main.c        **** //     isr_Rx_ClearPending();
  40:main.c        **** //}
  41:main.c        **** 
  42:main.c        **** void Get_voltage_shunt(uint8 add_slave, uint8 add_regist){
  28              		.loc 1 42 0
  29              		.cfi_startproc
  30              		@ args = 0, pretend = 0, frame = 0
  31              		@ frame_needed = 0, uses_anonymous_args = 0
  32              	.LVL0:
  33 0000 38B5     		push	{r3, r4, r5, lr}
  34              		.cfi_def_cfa_offset 16
  35              		.cfi_offset 3, -16
  36              		.cfi_offset 4, -12
  37              		.cfi_offset 5, -8
  38              		.cfi_offset 14, -4
  39 0002 0546     		mov	r5, r0
  40 0004 0C46     		mov	r4, r1
  43:main.c        ****             I2C_MasterSendRestart(add_slave,I2C_WRITE_XFER_MODE);
  41              		.loc 1 43 0
  42 0006 0021     		movs	r1, #0
  43              	.LVL1:
  44 0008 FFF7FEFF 		bl	I2C_MasterSendRestart
  45              	.LVL2:
  44:main.c        ****             I2C_MasterWriteByte(add_regist);
  46              		.loc 1 44 0
  47 000c 2046     		mov	r0, r4
  48 000e FFF7FEFF 		bl	I2C_MasterWriteByte
  49              	.LVL3:
  45:main.c        ****             I2C_MasterSendRestart(add_slave,I2C_READ_XFER_MODE);
  50              		.loc 1 45 0
  51 0012 0121     		movs	r1, #1
  52 0014 2846     		mov	r0, r5
  53 0016 FFF7FEFF 		bl	I2C_MasterSendRestart
  54              	.LVL4:
  46:main.c        ****             voltaje_shunt=I2C_MasterReadByte(add_regist);     
  55              		.loc 1 46 0
  56 001a 2046     		mov	r0, r4
  57 001c FFF7FEFF 		bl	I2C_MasterReadByte
  58              	.LVL5:
  59 0020 064C     		ldr	r4, .L3
  60 0022 2080     		strh	r0, [r4]	@ movhi
  47:main.c        ****           
  48:main.c        ****             voltaje_shunt2=I2C_MasterReadByte(I2C_ACK_DATA);
  61              		.loc 1 48 0
  62 0024 0120     		movs	r0, #1
  63 0026 FFF7FEFF 		bl	I2C_MasterReadByte
  64              	.LVL6:
  65 002a 80B2     		uxth	r0, r0
  66 002c 044B     		ldr	r3, .L3+4
ARM GAS  C:\Users\JEANPI~1\AppData\Local\Temp\cc5znvOb.s 			page 3


  67 002e 1880     		strh	r0, [r3]	@ movhi
  49:main.c        ****             
  50:main.c        ****             voltaje_shunt=voltaje_shunt<<8;
  68              		.loc 1 50 0
  69 0030 2388     		ldrh	r3, [r4]
  70 0032 1B02     		lsls	r3, r3, #8
  71 0034 9BB2     		uxth	r3, r3
  51:main.c        ****             voltaje_shunt=voltaje_shunt2+voltaje_shunt;
  72              		.loc 1 51 0
  73 0036 1844     		add	r0, r0, r3
  74 0038 2080     		strh	r0, [r4]	@ movhi
  75 003a 38BD     		pop	{r3, r4, r5, pc}
  76              	.L4:
  77              		.align	2
  78              	.L3:
  79 003c 00000000 		.word	voltaje_shunt
  80 0040 00000000 		.word	voltaje_shunt2
  81              		.cfi_endproc
  82              	.LFE63:
  83              		.size	Get_voltage_shunt, .-Get_voltage_shunt
  84              		.section	.text.Get_voltage_bus,"ax",%progbits
  85              		.align	2
  86              		.global	Get_voltage_bus
  87              		.thumb
  88              		.thumb_func
  89              		.type	Get_voltage_bus, %function
  90              	Get_voltage_bus:
  91              	.LFB64:
  52:main.c        ****             
  53:main.c        ****             //voltaje_shunt=~(voltaje_shunt)+1;
  54:main.c        ****             
  55:main.c        ****             //I2C_MasterSendStop();    
  56:main.c        ****             //return voltaje_shunt;
  57:main.c        ****         }
  58:main.c        ****         
  59:main.c        **** void Get_voltage_bus(uint8 add_slave, uint8 add_regist){
  92              		.loc 1 59 0
  93              		.cfi_startproc
  94              		@ args = 0, pretend = 0, frame = 0
  95              		@ frame_needed = 0, uses_anonymous_args = 0
  96              	.LVL7:
  97 0000 38B5     		push	{r3, r4, r5, lr}
  98              		.cfi_def_cfa_offset 16
  99              		.cfi_offset 3, -16
 100              		.cfi_offset 4, -12
 101              		.cfi_offset 5, -8
 102              		.cfi_offset 14, -4
 103 0002 0546     		mov	r5, r0
 104 0004 0C46     		mov	r4, r1
  60:main.c        ****             I2C_MasterSendRestart(add_slave,I2C_WRITE_XFER_MODE);
 105              		.loc 1 60 0
 106 0006 0021     		movs	r1, #0
 107              	.LVL8:
 108 0008 FFF7FEFF 		bl	I2C_MasterSendRestart
 109              	.LVL9:
  61:main.c        ****             I2C_MasterWriteByte(add_regist);
 110              		.loc 1 61 0
ARM GAS  C:\Users\JEANPI~1\AppData\Local\Temp\cc5znvOb.s 			page 4


 111 000c 2046     		mov	r0, r4
 112 000e FFF7FEFF 		bl	I2C_MasterWriteByte
 113              	.LVL10:
  62:main.c        ****             I2C_MasterSendRestart(add_slave,I2C_READ_XFER_MODE);
 114              		.loc 1 62 0
 115 0012 0121     		movs	r1, #1
 116 0014 2846     		mov	r0, r5
 117 0016 FFF7FEFF 		bl	I2C_MasterSendRestart
 118              	.LVL11:
  63:main.c        ****             vbus=I2C_MasterReadByte(add_regist);
 119              		.loc 1 63 0
 120 001a 2046     		mov	r0, r4
 121 001c FFF7FEFF 		bl	I2C_MasterReadByte
 122              	.LVL12:
 123 0020 094C     		ldr	r4, .L7
 124 0022 2080     		strh	r0, [r4]	@ movhi
  64:main.c        ****             vs1=vbus;///////////////////////////////////////////
 125              		.loc 1 64 0
 126 0024 094B     		ldr	r3, .L7+4
 127 0026 1870     		strb	r0, [r3]
  65:main.c        **** //            UART_PutCRLF(vs1);
  66:main.c        ****             vbus2=I2C_MasterReadByte(I2C_ACK_DATA);
 128              		.loc 1 66 0
 129 0028 0120     		movs	r0, #1
 130 002a FFF7FEFF 		bl	I2C_MasterReadByte
 131              	.LVL13:
 132 002e 82B2     		uxth	r2, r0
 133 0030 074B     		ldr	r3, .L7+8
 134 0032 1A80     		strh	r2, [r3]	@ movhi
  67:main.c        ****             vs2=vbus2;//////////////////////////////////////////
 135              		.loc 1 67 0
 136 0034 074B     		ldr	r3, .L7+12
 137 0036 1870     		strb	r0, [r3]
  68:main.c        **** //            UART_PutCRLF(vs2);
  69:main.c        ****             vbus=vbus<<8;
 138              		.loc 1 69 0
 139 0038 2388     		ldrh	r3, [r4]
 140 003a 1B02     		lsls	r3, r3, #8
 141 003c 9BB2     		uxth	r3, r3
  70:main.c        ****             vbus=vbus2+vbus;  
 142              		.loc 1 70 0
 143 003e 1344     		add	r3, r3, r2
  71:main.c        ****             vbus=vbus>>3;
 144              		.loc 1 71 0
 145 0040 C3F3CC03 		ubfx	r3, r3, #3, #13
 146 0044 2380     		strh	r3, [r4]	@ movhi
 147 0046 38BD     		pop	{r3, r4, r5, pc}
 148              	.L8:
 149              		.align	2
 150              	.L7:
 151 0048 00000000 		.word	vbus
 152 004c 00000000 		.word	vs1
 153 0050 00000000 		.word	vbus2
 154 0054 00000000 		.word	vs2
 155              		.cfi_endproc
 156              	.LFE64:
 157              		.size	Get_voltage_bus, .-Get_voltage_bus
ARM GAS  C:\Users\JEANPI~1\AppData\Local\Temp\cc5znvOb.s 			page 5


 158              		.section	.text.Get_Corriente,"ax",%progbits
 159              		.align	2
 160              		.global	Get_Corriente
 161              		.thumb
 162              		.thumb_func
 163              		.type	Get_Corriente, %function
 164              	Get_Corriente:
 165              	.LFB65:
  72:main.c        ****             
  73:main.c        ****             //I2C_MasterSendStop();    
  74:main.c        ****             //return voltaje_shunt;
  75:main.c        ****         }
  76:main.c        ****         
  77:main.c        **** void Get_Corriente(){
 166              		.loc 1 77 0
 167              		.cfi_startproc
 168              		@ args = 0, pretend = 0, frame = 0
 169              		@ frame_needed = 0, uses_anonymous_args = 0
 170 0000 10B5     		push	{r4, lr}
 171              		.cfi_def_cfa_offset 8
 172              		.cfi_offset 4, -8
 173              		.cfi_offset 14, -4
  78:main.c        ****      factor_lsb_Corriente=(3/32768);
 174              		.loc 1 78 0
 175 0002 0022     		movs	r2, #0
 176 0004 154B     		ldr	r3, .L11
 177 0006 1A60     		str	r2, [r3]	@ float
  79:main.c        ****         I2C_MasterSendRestart(SlaveAddress, I2C_WRITE_XFER_MODE);
 178              		.loc 1 79 0
 179 0008 0021     		movs	r1, #0
 180 000a 4020     		movs	r0, #64
 181 000c FFF7FEFF 		bl	I2C_MasterSendRestart
 182              	.LVL14:
  80:main.c        ****         I2C_MasterWriteByte(0x05);
 183              		.loc 1 80 0
 184 0010 0520     		movs	r0, #5
 185 0012 FFF7FEFF 		bl	I2C_MasterWriteByte
 186              	.LVL15:
  81:main.c        ****         I2C_MasterWriteByte(0x11);
 187              		.loc 1 81 0
 188 0016 1120     		movs	r0, #17
 189 0018 FFF7FEFF 		bl	I2C_MasterWriteByte
 190              	.LVL16:
  82:main.c        ****         I2C_MasterWriteByte(0x7C);
 191              		.loc 1 82 0
 192 001c 7C20     		movs	r0, #124
 193 001e FFF7FEFF 		bl	I2C_MasterWriteByte
 194              	.LVL17:
  83:main.c        ****         
  84:main.c        ****       I2C_MasterSendRestart(SlaveAddress, I2C_WRITE_XFER_MODE);
 195              		.loc 1 84 0
 196 0022 0021     		movs	r1, #0
 197 0024 4020     		movs	r0, #64
 198 0026 FFF7FEFF 		bl	I2C_MasterSendRestart
 199              	.LVL18:
  85:main.c        ****       I2C_MasterWriteByte(0x03);  
 200              		.loc 1 85 0
ARM GAS  C:\Users\JEANPI~1\AppData\Local\Temp\cc5znvOb.s 			page 6


 201 002a 0320     		movs	r0, #3
 202 002c FFF7FEFF 		bl	I2C_MasterWriteByte
 203              	.LVL19:
  86:main.c        ****       I2C_MasterSendRestart(SlaveAddress,I2C_READ_XFER_MODE);
 204              		.loc 1 86 0
 205 0030 0121     		movs	r1, #1
 206 0032 4020     		movs	r0, #64
 207 0034 FFF7FEFF 		bl	I2C_MasterSendRestart
 208              	.LVL20:
  87:main.c        ****       Datos=I2C_MasterReadByte(0x03);
 209              		.loc 1 87 0
 210 0038 0320     		movs	r0, #3
 211 003a FFF7FEFF 		bl	I2C_MasterReadByte
 212              	.LVL21:
 213 003e 80B2     		uxth	r0, r0
 214 0040 074C     		ldr	r4, .L11+4
  88:main.c        ****       Datos<<=8;
 215              		.loc 1 88 0
 216 0042 0002     		lsls	r0, r0, #8
 217 0044 2080     		strh	r0, [r4]	@ movhi
  89:main.c        ****       Datos+=I2C_MasterReadByte(I2C_ACK_DATA);
 218              		.loc 1 89 0
 219 0046 0120     		movs	r0, #1
 220 0048 FFF7FEFF 		bl	I2C_MasterReadByte
 221              	.LVL22:
 222 004c 2388     		ldrh	r3, [r4]
 223 004e 1844     		add	r0, r0, r3
 224 0050 80B2     		uxth	r0, r0
 225 0052 2080     		strh	r0, [r4]	@ movhi
  90:main.c        ****       corriente=Datos<<1;
 226              		.loc 1 90 0
 227 0054 4000     		lsls	r0, r0, #1
 228 0056 034B     		ldr	r3, .L11+8
 229 0058 1880     		strh	r0, [r3]	@ movhi
 230 005a 10BD     		pop	{r4, pc}
 231              	.L12:
 232              		.align	2
 233              	.L11:
 234 005c 00000000 		.word	factor_lsb_Corriente
 235 0060 00000000 		.word	Datos
 236 0064 00000000 		.word	corriente
 237              		.cfi_endproc
 238              	.LFE65:
 239              		.size	Get_Corriente, .-Get_Corriente
 240              		.section	.text.Get_Potencia,"ax",%progbits
 241              		.align	2
 242              		.global	Get_Potencia
 243              		.thumb
 244              		.thumb_func
 245              		.type	Get_Potencia, %function
 246              	Get_Potencia:
 247              	.LFB66:
  91:main.c        ****      // i2c_MasterSendStop();
  92:main.c        **** 
  93:main.c        **** }
  94:main.c        **** 
  95:main.c        ****         
ARM GAS  C:\Users\JEANPI~1\AppData\Local\Temp\cc5znvOb.s 			page 7


  96:main.c        **** void Get_Potencia(){
 248              		.loc 1 96 0
 249              		.cfi_startproc
 250              		@ args = 0, pretend = 0, frame = 0
 251              		@ frame_needed = 0, uses_anonymous_args = 0
 252 0000 10B5     		push	{r4, lr}
 253              		.cfi_def_cfa_offset 8
 254              		.cfi_offset 4, -8
 255              		.cfi_offset 14, -4
  97:main.c        ****     // factor_lsb_Corriente=(3/32768);
  98:main.c        ****        // float factor_lsb_potencia=factor_lsb_Corriente*20;
  99:main.c        ****     
 100:main.c        ****         I2C_MasterSendRestart(SlaveAddress, I2C_WRITE_XFER_MODE);
 256              		.loc 1 100 0
 257 0002 0021     		movs	r1, #0
 258 0004 4020     		movs	r0, #64
 259 0006 FFF7FEFF 		bl	I2C_MasterSendRestart
 260              	.LVL23:
 101:main.c        ****         I2C_MasterWriteByte(0x05);
 261              		.loc 1 101 0
 262 000a 0520     		movs	r0, #5
 263 000c FFF7FEFF 		bl	I2C_MasterWriteByte
 264              	.LVL24:
 102:main.c        ****         I2C_MasterWriteByte(0x18);
 265              		.loc 1 102 0
 266 0010 1820     		movs	r0, #24
 267 0012 FFF7FEFF 		bl	I2C_MasterWriteByte
 268              	.LVL25:
 103:main.c        ****         I2C_MasterWriteByte(0xf7);
 269              		.loc 1 103 0
 270 0016 F720     		movs	r0, #247
 271 0018 FFF7FEFF 		bl	I2C_MasterWriteByte
 272              	.LVL26:
 104:main.c        ****         
 105:main.c        ****       I2C_MasterSendRestart(SlaveAddress, I2C_WRITE_XFER_MODE);
 273              		.loc 1 105 0
 274 001c 0021     		movs	r1, #0
 275 001e 4020     		movs	r0, #64
 276 0020 FFF7FEFF 		bl	I2C_MasterSendRestart
 277              	.LVL27:
 106:main.c        ****       I2C_MasterWriteByte(0x04);  
 278              		.loc 1 106 0
 279 0024 0420     		movs	r0, #4
 280 0026 FFF7FEFF 		bl	I2C_MasterWriteByte
 281              	.LVL28:
 107:main.c        ****       I2C_MasterSendRestart(SlaveAddress,I2C_READ_XFER_MODE);
 282              		.loc 1 107 0
 283 002a 0121     		movs	r1, #1
 284 002c 4020     		movs	r0, #64
 285 002e FFF7FEFF 		bl	I2C_MasterSendRestart
 286              	.LVL29:
 108:main.c        ****       Datos=I2C_MasterReadByte(0x04);
 287              		.loc 1 108 0
 288 0032 0420     		movs	r0, #4
 289 0034 FFF7FEFF 		bl	I2C_MasterReadByte
 290              	.LVL30:
 291 0038 80B2     		uxth	r0, r0
ARM GAS  C:\Users\JEANPI~1\AppData\Local\Temp\cc5znvOb.s 			page 8


 292 003a 064C     		ldr	r4, .L15
 109:main.c        ****       Datos<<=8;
 293              		.loc 1 109 0
 294 003c 0002     		lsls	r0, r0, #8
 295 003e 2080     		strh	r0, [r4]	@ movhi
 110:main.c        ****       Datos+=I2C_MasterReadByte(I2C_ACK_DATA);
 296              		.loc 1 110 0
 297 0040 0120     		movs	r0, #1
 298 0042 FFF7FEFF 		bl	I2C_MasterReadByte
 299              	.LVL31:
 300 0046 2388     		ldrh	r3, [r4]
 301 0048 1844     		add	r0, r0, r3
 302 004a 80B2     		uxth	r0, r0
 303 004c 2080     		strh	r0, [r4]	@ movhi
 111:main.c        ****       potencia=Datos;
 304              		.loc 1 111 0
 305 004e 024B     		ldr	r3, .L15+4
 306 0050 1880     		strh	r0, [r3]	@ movhi
 307 0052 10BD     		pop	{r4, pc}
 308              	.L16:
 309              		.align	2
 310              	.L15:
 311 0054 00000000 		.word	Datos
 312 0058 00000000 		.word	potencia
 313              		.cfi_endproc
 314              	.LFE66:
 315              		.size	Get_Potencia, .-Get_Potencia
 316              		.global	__aeabi_i2f
 317              		.global	__aeabi_fmul
 318              		.global	__aeabi_fdiv
 319              		.global	__aeabi_f2uiz
 320              		.section	.text.main,"ax",%progbits
 321              		.align	2
 322              		.global	main
 323              		.thumb
 324              		.thumb_func
 325              		.type	main, %function
 326              	main:
 327              	.LFB67:
 112:main.c        ****      // i2c_MasterSendStop();
 113:main.c        **** 
 114:main.c        **** }
 115:main.c        **** 
 116:main.c        **** int main(void)
 117:main.c        **** {
 328              		.loc 1 117 0
 329              		.cfi_startproc
 330              		@ args = 0, pretend = 0, frame = 0
 331              		@ frame_needed = 0, uses_anonymous_args = 0
 332 0000 70B5     		push	{r4, r5, r6, lr}
 333              		.cfi_def_cfa_offset 16
 334              		.cfi_offset 4, -16
 335              		.cfi_offset 5, -12
 336              		.cfi_offset 6, -8
 337              		.cfi_offset 14, -4
 118:main.c        ****     CyGlobalIntEnable; /* Enable global interrupts. */
 338              		.loc 1 118 0
ARM GAS  C:\Users\JEANPI~1\AppData\Local\Temp\cc5znvOb.s 			page 9


 339              		.syntax unified
 340              	@ 118 "main.c" 1
 341 0002 62B6     		CPSIE   i
 342              	@ 0 "" 2
 119:main.c        ****     //isr_Rx_StartEx(Rx);
 120:main.c        **** 
 121:main.c        ****     /* Place your initialization/startup code here (e.g. MyInst_Start()) */
 122:main.c        ****     LCD_Start();
 343              		.loc 1 122 0
 344              		.thumb
 345              		.syntax unified
 346 0004 FFF7FEFF 		bl	LCD_Start
 347              	.LVL32:
 123:main.c        ****     I2C_Start();
 348              		.loc 1 123 0
 349 0008 FFF7FEFF 		bl	I2C_Start
 350              	.LVL33:
 124:main.c        ****     UART_Start();
 351              		.loc 1 124 0
 352 000c FFF7FEFF 		bl	UART_Start
 353              	.LVL34:
 354              	.L18:
 355              	.LBB2:
 125:main.c        ****     
 126:main.c        ****     for(;;)
 127:main.c        ****     {
 128:main.c        ****         /* Place your application code here. */
 129:main.c        ****         
 130:main.c        ****         //LECTURA DE UN SOLO BYTE DEL SENSOR
 131:main.c        ****         
 132:main.c        ****         do
 133:main.c        ****         {
 134:main.c        ****        I2C_MasterSendStart(SlaveAddress,I2C_WRITE_XFER_MODE);
 356              		.loc 1 134 0 discriminator 1
 357 0010 0021     		movs	r1, #0
 358 0012 4020     		movs	r0, #64
 359 0014 FFF7FEFF 		bl	I2C_MasterSendStart
 360              	.LVL35:
 135:main.c        ****         
 136:main.c        ****         }
 137:main.c        ****         while(result!=I2C_MSTR_NO_ERROR);   
 361              		.loc 1 137 0 discriminator 1
 362 0018 3E4B     		ldr	r3, .L22
 363 001a 1B78     		ldrb	r3, [r3]	@ zero_extendqisi2
 364 001c 002B     		cmp	r3, #0
 365 001e F7D1     		bne	.L18
 138:main.c        ****             
 139:main.c        ****             Get_voltage_shunt(SlaveAddress,0x01);            
 366              		.loc 1 139 0
 367 0020 0121     		movs	r1, #1
 368 0022 4020     		movs	r0, #64
 369 0024 FFF7FEFF 		bl	Get_voltage_shunt
 370              	.LVL36:
 140:main.c        ****             Get_voltage_bus(SlaveAddress,0x02);
 371              		.loc 1 140 0
 372 0028 0221     		movs	r1, #2
 373 002a 4020     		movs	r0, #64
ARM GAS  C:\Users\JEANPI~1\AppData\Local\Temp\cc5znvOb.s 			page 10


 374 002c FFF7FEFF 		bl	Get_voltage_bus
 375              	.LVL37:
 141:main.c        ****          
 142:main.c        ****             //Get_Corriente();
 143:main.c        ****             //Get_Potencia();
 144:main.c        ****             I2C_MasterSendStop();
 376              		.loc 1 144 0
 377 0030 FFF7FEFF 		bl	I2C_MasterSendStop
 378              	.LVL38:
 145:main.c        ****             
 146:main.c        ****                 I2C_MasterSendRestart(SlaveAddress, I2C_WRITE_XFER_MODE);
 379              		.loc 1 146 0
 380 0034 0021     		movs	r1, #0
 381 0036 4020     		movs	r0, #64
 382 0038 FFF7FEFF 		bl	I2C_MasterSendRestart
 383              	.LVL39:
 147:main.c        ****             I2C_MasterWriteByte(0x00);
 384              		.loc 1 147 0
 385 003c 0020     		movs	r0, #0
 386 003e FFF7FEFF 		bl	I2C_MasterWriteByte
 387              	.LVL40:
 148:main.c        ****             I2C_MasterWriteByte(0xAB);
 388              		.loc 1 148 0
 389 0042 AB20     		movs	r0, #171
 390 0044 FFF7FEFF 		bl	I2C_MasterWriteByte
 391              	.LVL41:
 149:main.c        ****             I2C_MasterWriteByte(0x3F);
 392              		.loc 1 149 0
 393 0048 3F20     		movs	r0, #63
 394 004a FFF7FEFF 		bl	I2C_MasterWriteByte
 395              	.LVL42:
 150:main.c        ****                        
 151:main.c        ****             factor_lsb_Corriente=(3/32768);
 396              		.loc 1 151 0
 397 004e 0022     		movs	r2, #0
 398 0050 314B     		ldr	r3, .L22+4
 399 0052 1A60     		str	r2, [r3]	@ float
 152:main.c        ****             float cor=(voltaje_shunt*4473)/4096;
 400              		.loc 1 152 0
 401 0054 314B     		ldr	r3, .L22+8
 402 0056 1888     		ldrh	r0, [r3]
 403 0058 41F27913 		movw	r3, #4473
 404 005c 03FB00F0 		mul	r0, r3, r0
 405 0060 0028     		cmp	r0, #0
 406 0062 01DA     		bge	.L19
 407 0064 00F6FF70 		addw	r0, r0, #4095
 408              	.L19:
 409 0068 0013     		asrs	r0, r0, #12
 410 006a FFF7FEFF 		bl	__aeabi_i2f
 411              	.LVL43:
 412 006e 0646     		mov	r6, r0
 413              	.LVL44:
 153:main.c        ****             float factor_lsb_potencia=factor_lsb_Corriente*20;
 154:main.c        ****             float pot=(cor*vbus)/5000;
 414              		.loc 1 154 0
 415 0070 2B4D     		ldr	r5, .L22+12
 416 0072 2888     		ldrh	r0, [r5]
ARM GAS  C:\Users\JEANPI~1\AppData\Local\Temp\cc5znvOb.s 			page 11


 417              	.LVL45:
 418 0074 FFF7FEFF 		bl	__aeabi_i2f
 419              	.LVL46:
 420 0078 3146     		mov	r1, r6
 421 007a FFF7FEFF 		bl	__aeabi_fmul
 422              	.LVL47:
 423 007e 2949     		ldr	r1, .L22+16
 424 0080 FFF7FEFF 		bl	__aeabi_fdiv
 425              	.LVL48:
 426 0084 0446     		mov	r4, r0
 427              	.LVL49:
 155:main.c        ****             
 156:main.c        ****         LCD_Position(0,0);
 428              		.loc 1 156 0
 429 0086 0021     		movs	r1, #0
 430 0088 0846     		mov	r0, r1
 431              	.LVL50:
 432 008a FFF7FEFF 		bl	LCD_Position
 433              	.LVL51:
 157:main.c        ****         LCD_PrintString("Vs:");
 434              		.loc 1 157 0
 435 008e 2648     		ldr	r0, .L22+20
 436 0090 FFF7FEFF 		bl	LCD_PrintString
 437              	.LVL52:
 158:main.c        ****         LCD_Position(0,3);
 438              		.loc 1 158 0
 439 0094 0321     		movs	r1, #3
 440 0096 0020     		movs	r0, #0
 441 0098 FFF7FEFF 		bl	LCD_Position
 442              	.LVL53:
 159:main.c        ****         LCD_PrintHexUint16(voltaje_shunt);
 443              		.loc 1 159 0
 444 009c 1F4B     		ldr	r3, .L22+8
 445 009e 1888     		ldrh	r0, [r3]
 446 00a0 FFF7FEFF 		bl	LCD_PrintInt16
 447              	.LVL54:
 160:main.c        ****         
 161:main.c        ****         LCD_Position(0,9);
 448              		.loc 1 161 0
 449 00a4 0921     		movs	r1, #9
 450 00a6 0020     		movs	r0, #0
 451 00a8 FFF7FEFF 		bl	LCD_Position
 452              	.LVL55:
 162:main.c        ****         LCD_PrintString("I:");
 453              		.loc 1 162 0
 454 00ac 1F48     		ldr	r0, .L22+24
 455 00ae FFF7FEFF 		bl	LCD_PrintString
 456              	.LVL56:
 163:main.c        ****         LCD_Position(0,11);
 457              		.loc 1 163 0
 458 00b2 0B21     		movs	r1, #11
 459 00b4 0020     		movs	r0, #0
 460 00b6 FFF7FEFF 		bl	LCD_Position
 461              	.LVL57:
 164:main.c        ****         LCD_PrintHexUint16(cor);
 462              		.loc 1 164 0
 463 00ba 3046     		mov	r0, r6
ARM GAS  C:\Users\JEANPI~1\AppData\Local\Temp\cc5znvOb.s 			page 12


 464 00bc FFF7FEFF 		bl	__aeabi_f2uiz
 465              	.LVL58:
 466 00c0 80B2     		uxth	r0, r0
 467 00c2 FFF7FEFF 		bl	LCD_PrintInt16
 468              	.LVL59:
 165:main.c        ****         
 166:main.c        ****         
 167:main.c        ****         LCD_Position(1,0);
 469              		.loc 1 167 0
 470 00c6 0021     		movs	r1, #0
 471 00c8 0120     		movs	r0, #1
 472 00ca FFF7FEFF 		bl	LCD_Position
 473              	.LVL60:
 168:main.c        ****         LCD_PrintString("Vb:");
 474              		.loc 1 168 0
 475 00ce 1848     		ldr	r0, .L22+28
 476 00d0 FFF7FEFF 		bl	LCD_PrintString
 477              	.LVL61:
 169:main.c        ****         LCD_Position(1,3);
 478              		.loc 1 169 0
 479 00d4 0321     		movs	r1, #3
 480 00d6 0120     		movs	r0, #1
 481 00d8 FFF7FEFF 		bl	LCD_Position
 482              	.LVL62:
 170:main.c        ****         LCD_PrintHexUint16(vbus);
 483              		.loc 1 170 0
 484 00dc 2888     		ldrh	r0, [r5]
 485 00de FFF7FEFF 		bl	LCD_PrintInt16
 486              	.LVL63:
 171:main.c        ****         
 172:main.c        ****         LCD_Position(1,10);
 487              		.loc 1 172 0
 488 00e2 0A21     		movs	r1, #10
 489 00e4 0120     		movs	r0, #1
 490 00e6 FFF7FEFF 		bl	LCD_Position
 491              	.LVL64:
 173:main.c        ****         LCD_PrintString("P:");
 492              		.loc 1 173 0
 493 00ea 1248     		ldr	r0, .L22+32
 494 00ec FFF7FEFF 		bl	LCD_PrintString
 495              	.LVL65:
 174:main.c        ****         LCD_Position(1,12);
 496              		.loc 1 174 0
 497 00f0 0C21     		movs	r1, #12
 498 00f2 0120     		movs	r0, #1
 499 00f4 FFF7FEFF 		bl	LCD_Position
 500              	.LVL66:
 175:main.c        ****         LCD_PrintHexUint16(pot);      
 501              		.loc 1 175 0
 502 00f8 2046     		mov	r0, r4
 503 00fa FFF7FEFF 		bl	__aeabi_f2uiz
 504              	.LVL67:
 505 00fe 80B2     		uxth	r0, r0
 506 0100 FFF7FEFF 		bl	LCD_PrintInt16
 507              	.LVL68:
 176:main.c        ****         
 177:main.c        ****         UART_PutChar(pot);
ARM GAS  C:\Users\JEANPI~1\AppData\Local\Temp\cc5znvOb.s 			page 13


 508              		.loc 1 177 0
 509 0104 2046     		mov	r0, r4
 510 0106 FFF7FEFF 		bl	__aeabi_f2uiz
 511              	.LVL69:
 512 010a C0B2     		uxtb	r0, r0
 513 010c FFF7FEFF 		bl	UART_PutChar
 514              	.LVL70:
 515              	.LBE2:
 178:main.c        **** 
 179:main.c        ****     }
 516              		.loc 1 179 0
 517 0110 7EE7     		b	.L18
 518              	.L23:
 519 0112 00BF     		.align	2
 520              	.L22:
 521 0114 00000000 		.word	result
 522 0118 00000000 		.word	factor_lsb_Corriente
 523 011c 00000000 		.word	voltaje_shunt
 524 0120 00000000 		.word	vbus
 525 0124 00409C45 		.word	1167867904
 526 0128 00000000 		.word	.LC0
 527 012c 04000000 		.word	.LC1
 528 0130 08000000 		.word	.LC2
 529 0134 0C000000 		.word	.LC3
 530              		.cfi_endproc
 531              	.LFE67:
 532              		.size	main, .-main
 533              		.global	string2
 534              		.comm	vs2,1,1
 535              		.comm	vs1,1,1
 536              		.global	g
 537              		.global	h
 538              		.comm	factor_lsb_Corriente,4,4
 539              		.comm	flag,4,4
 540              		.comm	potencia,2,2
 541              		.comm	corriente,2,2
 542              		.comm	Datos,2,2
 543              		.comm	Datos2,2,2
 544              		.comm	vbus2,2,2
 545              		.comm	vbus,2,2
 546              		.comm	voltaje_shunt2,2,2
 547              		.comm	voltaje_shunt,2,2
 548              		.comm	angulo,2,2
 549              		.comm	valorpotencia,1,1
 550              		.comm	Tabla,4,4
 551              		.comm	i,1,1
 552              		.comm	result,1,1
 553              		.section	.rodata
 554              		.align	2
 555              		.type	string2, %object
 556              		.size	string2, 4
 557              	string2:
 558 0000 30313233 		.ascii	"0123"
 559              		.data
 560              		.type	g, %object
 561              		.size	g, 1
 562              	g:
ARM GAS  C:\Users\JEANPI~1\AppData\Local\Temp\cc5znvOb.s 			page 14


 563 0000 06       		.byte	6
 564              		.type	h, %object
 565              		.size	h, 1
 566              	h:
 567 0001 08       		.byte	8
 568              		.section	.rodata.str1.4,"aMS",%progbits,1
 569              		.align	2
 570              	.LC0:
 571 0000 56733A00 		.ascii	"Vs:\000"
 572              	.LC1:
 573 0004 493A00   		.ascii	"I:\000"
 574 0007 00       		.space	1
 575              	.LC2:
 576 0008 56623A00 		.ascii	"Vb:\000"
 577              	.LC3:
 578 000c 503A00   		.ascii	"P:\000"
 579              		.text
 580              	.Letext0:
 581              		.file 2 "c:\\program files (x86)\\cypress\\psoc creator\\4.2\\psoc creator\\import\\gnu\\arm\\5.4.
 582              		.file 3 "c:\\program files (x86)\\cypress\\psoc creator\\4.2\\psoc creator\\import\\gnu\\arm\\5.4.
 583              		.file 4 "Generated_Source\\PSoC5/cytypes.h"
 584              		.file 5 "Generated_Source\\PSoC5/core_cm3.h"
 585              		.file 6 "Generated_Source\\PSoC5/I2C.h"
 586              		.file 7 "Generated_Source\\PSoC5/LCD.h"
 587              		.file 8 "Generated_Source\\PSoC5/UART.h"