ARM GAS  C:\Users\santa\AppData\Local\Temp\cczAvCun.s 			page 1


   1              		.syntax unified
   2              		.cpu cortex-m3
   3              		.fpu softvfp
   4              		.eabi_attribute 20, 1
   5              		.eabi_attribute 21, 1
   6              		.eabi_attribute 23, 3
   7              		.eabi_attribute 24, 1
   8              		.eabi_attribute 25, 1
   9              		.eabi_attribute 26, 1
  10              		.eabi_attribute 30, 1
  11              		.eabi_attribute 34, 1
  12              		.eabi_attribute 18, 4
  13              		.thumb
  14              		.syntax unified
  15              		.file	"main.c"
  16              		.text
  17              	.Ltext0:
  18              		.cfi_sections	.debug_frame
  19              		.section	.text.Rx,"ax",%progbits
  20              		.align	2
  21              		.global	Rx
  22              		.thumb
  23              		.thumb_func
  24              		.type	Rx, %function
  25              	Rx:
  26              	.LFB63:
  27              		.file 1 "main.c"
   1:main.c        **** /* ========================================
   2:main.c        ****  *
   3:main.c        ****  * Copyright YOUR COMPANY, THE YEAR
   4:main.c        ****  * All Rights Reserved
   5:main.c        ****  * UNPUBLISHED, LICENSED SOFTWARE.
   6:main.c        ****  *
   7:main.c        ****  * CONFIDENTIAL AND PROPRIETARY INFORMATION
   8:main.c        ****  * WHICH IS THE PROPERTY OF your company.
   9:main.c        ****  *
  10:main.c        ****  * ========================================
  11:main.c        **** */
  12:main.c        **** #include "project.h"
  13:main.c        **** #define SLAVE_ADRESS 0x40
  14:main.c        **** uint8 result=0;
  15:main.c        **** 
  16:main.c        **** int16 Datos,Datos2,Voltaje_Shunt=0;
  17:main.c        **** float32 factor_lsb_Corriente=0;
  18:main.c        **** int16 Corriente,Voltaje,Potencia=0;
  19:main.c        **** int flag=0;
  20:main.c        **** //INTERRUPCION DE RECEPCION///
  21:main.c        **** 
  22:main.c        **** 
  23:main.c        **** CY_ISR(Rx){
  28              		.loc 1 23 0
  29              		.cfi_startproc
  30              		@ args = 0, pretend = 0, frame = 0
  31              		@ frame_needed = 0, uses_anonymous_args = 0
  32 0000 08B5     		push	{r3, lr}
  33              		.cfi_def_cfa_offset 8
  34              		.cfi_offset 3, -8
ARM GAS  C:\Users\santa\AppData\Local\Temp\cczAvCun.s 			page 2


  35              		.cfi_offset 14, -4
  24:main.c        **** 
  25:main.c        ****     char Value_Init;
  26:main.c        ****     Value_Init=UART_GetChar();
  36              		.loc 1 26 0
  37 0002 FFF7FEFF 		bl	UART_GetChar
  38              	.LVL0:
  27:main.c        ****     if(Value_Init == 'a'){
  39              		.loc 1 27 0
  40 0006 6128     		cmp	r0, #97
  41 0008 02D1     		bne	.L2
  28:main.c        ****       flag=1;
  42              		.loc 1 28 0
  43 000a 0122     		movs	r2, #1
  44 000c 024B     		ldr	r3, .L4
  45 000e 1A60     		str	r2, [r3]
  46              	.L2:
  29:main.c        ****     
  30:main.c        ****     }
  31:main.c        ****      isr_Rx_ClearPending();
  47              		.loc 1 31 0
  48 0010 FFF7FEFF 		bl	isr_Rx_ClearPending
  49              	.LVL1:
  50 0014 08BD     		pop	{r3, pc}
  51              	.L5:
  52 0016 00BF     		.align	2
  53              	.L4:
  54 0018 00000000 		.word	.LANCHOR0
  55              		.cfi_endproc
  56              	.LFE63:
  57              		.size	Rx, .-Rx
  58              		.global	__aeabi_i2f
  59              		.section	.text.Calc_Factor_LSB,"ax",%progbits
  60              		.align	2
  61              		.global	Calc_Factor_LSB
  62              		.thumb
  63              		.thumb_func
  64              		.type	Calc_Factor_LSB, %function
  65              	Calc_Factor_LSB:
  66              	.LFB64:
  32:main.c        **** }
  33:main.c        **** 
  34:main.c        **** 
  35:main.c        **** ////INTERRUPCION DE TRANSMISION SERIAL
  36:main.c        **** 
  37:main.c        **** 
  38:main.c        **** 
  39:main.c        **** //SE BUSCA UNA RESOLUCION DE 40MV
  40:main.c        **** void Calc_Factor_LSB(int max_Current_Wait){
  67              		.loc 1 40 0
  68              		.cfi_startproc
  69              		@ args = 0, pretend = 0, frame = 0
  70              		@ frame_needed = 0, uses_anonymous_args = 0
  71              	.LVL2:
  72 0000 08B5     		push	{r3, lr}
  73              		.cfi_def_cfa_offset 8
  74              		.cfi_offset 3, -8
ARM GAS  C:\Users\santa\AppData\Local\Temp\cczAvCun.s 			page 3


  75              		.cfi_offset 14, -4
  41:main.c        **** factor_lsb_Corriente=(max_Current_Wait/32768);
  76              		.loc 1 41 0
  77 0002 0028     		cmp	r0, #0
  78 0004 02DA     		bge	.L7
  79 0006 00F5FF40 		add	r0, r0, #32640
  80              	.LVL3:
  81 000a 7F30     		adds	r0, r0, #127
  82              	.LVL4:
  83              	.L7:
  84 000c C013     		asrs	r0, r0, #15
  85 000e FFF7FEFF 		bl	__aeabi_i2f
  86              	.LVL5:
  87 0012 014B     		ldr	r3, .L9
  88 0014 5860     		str	r0, [r3, #4]	@ float
  89 0016 08BD     		pop	{r3, pc}
  90              	.L10:
  91              		.align	2
  92              	.L9:
  93 0018 00000000 		.word	.LANCHOR0
  94              		.cfi_endproc
  95              	.LFE64:
  96              		.size	Calc_Factor_LSB, .-Calc_Factor_LSB
  97              		.section	.text.Write_Configuration,"ax",%progbits
  98              		.align	2
  99              		.global	Write_Configuration
 100              		.thumb
 101              		.thumb_func
 102              		.type	Write_Configuration, %function
 103              	Write_Configuration:
 104              	.LFB65:
  42:main.c        **** }
  43:main.c        **** void Write_Configuration(){
 105              		.loc 1 43 0
 106              		.cfi_startproc
 107              		@ args = 0, pretend = 0, frame = 0
 108              		@ frame_needed = 0, uses_anonymous_args = 0
 109 0000 08B5     		push	{r3, lr}
 110              		.cfi_def_cfa_offset 8
 111              		.cfi_offset 3, -8
 112              		.cfi_offset 14, -4
  44:main.c        ****         i2c_MasterSendRestart(SLAVE_ADRESS, i2c_WRITE_XFER_MODE);  
 113              		.loc 1 44 0
 114 0002 0021     		movs	r1, #0
 115 0004 4020     		movs	r0, #64
 116 0006 FFF7FEFF 		bl	i2c_MasterSendRestart
 117              	.LVL6:
  45:main.c        ****         i2c_MasterWriteByte(0x00);
 118              		.loc 1 45 0
 119 000a 0020     		movs	r0, #0
 120 000c FFF7FEFF 		bl	i2c_MasterWriteByte
 121              	.LVL7:
  46:main.c        ****         i2c_MasterWriteByte(0xA4);
 122              		.loc 1 46 0
 123 0010 A420     		movs	r0, #164
 124 0012 FFF7FEFF 		bl	i2c_MasterWriteByte
 125              	.LVL8:
ARM GAS  C:\Users\santa\AppData\Local\Temp\cczAvCun.s 			page 4


  47:main.c        ****         i2c_MasterWriteByte(0x1F);
 126              		.loc 1 47 0
 127 0016 1F20     		movs	r0, #31
 128 0018 FFF7FEFF 		bl	i2c_MasterWriteByte
 129              	.LVL9:
 130 001c 08BD     		pop	{r3, pc}
 131              		.cfi_endproc
 132              	.LFE65:
 133              		.size	Write_Configuration, .-Write_Configuration
 134 001e 00BF     		.section	.text.Write_Calibracion,"ax",%progbits
 135              		.align	2
 136              		.global	Write_Calibracion
 137              		.thumb
 138              		.thumb_func
 139              		.type	Write_Calibracion, %function
 140              	Write_Calibracion:
 141              	.LFB66:
  48:main.c        **** }
  49:main.c        **** void Write_Calibracion(){
 142              		.loc 1 49 0
 143              		.cfi_startproc
 144              		@ args = 0, pretend = 0, frame = 0
 145              		@ frame_needed = 0, uses_anonymous_args = 0
 146 0000 08B5     		push	{r3, lr}
 147              		.cfi_def_cfa_offset 8
 148              		.cfi_offset 3, -8
 149              		.cfi_offset 14, -4
  50:main.c        ****         i2c_MasterSendRestart(SLAVE_ADRESS, i2c_WRITE_XFER_MODE);
 150              		.loc 1 50 0
 151 0002 0021     		movs	r1, #0
 152 0004 4020     		movs	r0, #64
 153 0006 FFF7FEFF 		bl	i2c_MasterSendRestart
 154              	.LVL10:
  51:main.c        ****         i2c_MasterWriteByte(0x05);
 155              		.loc 1 51 0
 156 000a 0520     		movs	r0, #5
 157 000c FFF7FEFF 		bl	i2c_MasterWriteByte
 158              	.LVL11:
  52:main.c        ****         i2c_MasterWriteByte(0x18);
 159              		.loc 1 52 0
 160 0010 1820     		movs	r0, #24
 161 0012 FFF7FEFF 		bl	i2c_MasterWriteByte
 162              	.LVL12:
  53:main.c        ****         i2c_MasterWriteByte(0xf7);
 163              		.loc 1 53 0
 164 0016 F720     		movs	r0, #247
 165 0018 FFF7FEFF 		bl	i2c_MasterWriteByte
 166              	.LVL13:
 167 001c 08BD     		pop	{r3, pc}
 168              		.cfi_endproc
 169              	.LFE66:
 170              		.size	Write_Calibracion, .-Write_Calibracion
 171 001e 00BF     		.section	.text.Read_Voltage_Shut,"ax",%progbits
 172              		.align	2
 173              		.global	Read_Voltage_Shut
 174              		.thumb
 175              		.thumb_func
ARM GAS  C:\Users\santa\AppData\Local\Temp\cczAvCun.s 			page 5


 176              		.type	Read_Voltage_Shut, %function
 177              	Read_Voltage_Shut:
 178              	.LFB67:
  54:main.c        **** 
  55:main.c        **** }
  56:main.c        **** void Read_Voltage_Shut(){
 179              		.loc 1 56 0
 180              		.cfi_startproc
 181              		@ args = 0, pretend = 0, frame = 0
 182              		@ frame_needed = 0, uses_anonymous_args = 0
 183 0000 10B5     		push	{r4, lr}
 184              		.cfi_def_cfa_offset 8
 185              		.cfi_offset 4, -8
 186              		.cfi_offset 14, -4
  57:main.c        ****     i2c_MasterSendRestart(SLAVE_ADRESS, i2c_READ_XFER_MODE);
 187              		.loc 1 57 0
 188 0002 0121     		movs	r1, #1
 189 0004 4020     		movs	r0, #64
 190 0006 FFF7FEFF 		bl	i2c_MasterSendRestart
 191              	.LVL14:
  58:main.c        ****     Datos2=i2c_MasterReadByte(0x01);
 192              		.loc 1 58 0
 193 000a 0120     		movs	r0, #1
 194 000c FFF7FEFF 		bl	i2c_MasterReadByte
 195              	.LVL15:
 196 0010 00B2     		sxth	r0, r0
 197 0012 0B4C     		ldr	r4, .L18
  59:main.c        ****     Datos2<<=8;
 198              		.loc 1 59 0
 199 0014 0002     		lsls	r0, r0, #8
 200 0016 2080     		strh	r0, [r4]	@ movhi
  60:main.c        ****     Datos2+=i2c_MasterReadByte(i2c_ACK_DATA);
 201              		.loc 1 60 0
 202 0018 0120     		movs	r0, #1
 203 001a FFF7FEFF 		bl	i2c_MasterReadByte
 204              	.LVL16:
 205 001e 2388     		ldrh	r3, [r4]
 206 0020 1844     		add	r0, r0, r3
 207 0022 80B2     		uxth	r0, r0
 208 0024 03B2     		sxth	r3, r0
 209 0026 2380     		strh	r3, [r4]	@ movhi
  61:main.c        ****     //esta es la operacion para convertir el dato el signo y magnitud
  62:main.c        ****     if((0x8000 & Datos2) == 0x8000){
 210              		.loc 1 62 0
 211 0028 002B     		cmp	r3, #0
 212 002a 03DA     		bge	.L16
  63:main.c        ****        Datos2-=1;
 213              		.loc 1 63 0
 214 002c 0138     		subs	r0, r0, #1
 215 002e 00B2     		sxth	r0, r0
  64:main.c        ****        Datos2=~Datos2;
  65:main.c        ****        Datos2*=-1; 
 216              		.loc 1 65 0
 217 0030 0130     		adds	r0, r0, #1
 218 0032 2080     		strh	r0, [r4]	@ movhi
 219              	.L16:
  66:main.c        ****     }
ARM GAS  C:\Users\santa\AppData\Local\Temp\cczAvCun.s 			page 6


  67:main.c        ****     Voltaje_Shunt=Datos2;
 220              		.loc 1 67 0
 221 0034 024B     		ldr	r3, .L18
 222 0036 1A88     		ldrh	r2, [r3]
 223 0038 024B     		ldr	r3, .L18+4
 224 003a 1A81     		strh	r2, [r3, #8]	@ movhi
 225 003c 10BD     		pop	{r4, pc}
 226              	.L19:
 227 003e 00BF     		.align	2
 228              	.L18:
 229 0040 00000000 		.word	Datos2
 230 0044 00000000 		.word	.LANCHOR0
 231              		.cfi_endproc
 232              	.LFE67:
 233              		.size	Read_Voltage_Shut, .-Read_Voltage_Shut
 234              		.section	.text.Write_Mediciones,"ax",%progbits
 235              		.align	2
 236              		.global	Write_Mediciones
 237              		.thumb
 238              		.thumb_func
 239              		.type	Write_Mediciones, %function
 240              	Write_Mediciones:
 241              	.LFB68:
  68:main.c        ****   //  Datos2>>=3;
  69:main.c        ****     
  70:main.c        **** }
  71:main.c        **** void Write_Mediciones(){
 242              		.loc 1 71 0
 243              		.cfi_startproc
 244              		@ args = 0, pretend = 0, frame = 0
 245              		@ frame_needed = 0, uses_anonymous_args = 0
 246 0000 08B5     		push	{r3, lr}
 247              		.cfi_def_cfa_offset 8
 248              		.cfi_offset 3, -8
 249              		.cfi_offset 14, -4
 250              	.LVL17:
  72:main.c        ****       int16 value_base=0x0fa0;    
  73:main.c        ****      i2c_MasterSendRestart(SLAVE_ADRESS, i2c_WRITE_XFER_MODE);
 251              		.loc 1 73 0
 252 0002 0021     		movs	r1, #0
 253 0004 4020     		movs	r0, #64
 254 0006 FFF7FEFF 		bl	i2c_MasterSendRestart
 255              	.LVL18:
  74:main.c        ****         i2c_MasterWriteByte(0x02);  
 256              		.loc 1 74 0
 257 000a 0220     		movs	r0, #2
 258 000c FFF7FEFF 		bl	i2c_MasterWriteByte
 259              	.LVL19:
  75:main.c        ****       CyDelay(1);
 260              		.loc 1 75 0
 261 0010 0120     		movs	r0, #1
 262 0012 FFF7FEFF 		bl	CyDelay
 263              	.LVL20:
  76:main.c        ****        i2c_MasterSendRestart(SLAVE_ADRESS,i2c_WRITE_XFER_MODE);
 264              		.loc 1 76 0
 265 0016 0021     		movs	r1, #0
 266 0018 4020     		movs	r0, #64
ARM GAS  C:\Users\santa\AppData\Local\Temp\cczAvCun.s 			page 7


 267 001a FFF7FEFF 		bl	i2c_MasterSendRestart
 268              	.LVL21:
  77:main.c        ****        i2c_MasterWriteByte(0x01);
 269              		.loc 1 77 0
 270 001e 0120     		movs	r0, #1
 271 0020 FFF7FEFF 		bl	i2c_MasterWriteByte
 272              	.LVL22:
  78:main.c        ****        i2c_MasterSendRestart(SLAVE_ADRESS, i2c_WRITE_XFER_MODE);
 273              		.loc 1 78 0
 274 0024 0021     		movs	r1, #0
 275 0026 4020     		movs	r0, #64
 276 0028 FFF7FEFF 		bl	i2c_MasterSendRestart
 277              	.LVL23:
  79:main.c        ****         i2c_MasterWriteByte(0x03);
 278              		.loc 1 79 0
 279 002c 0320     		movs	r0, #3
 280 002e FFF7FEFF 		bl	i2c_MasterWriteByte
 281              	.LVL24:
  80:main.c        ****         CyDelay(1);
 282              		.loc 1 80 0
 283 0032 0120     		movs	r0, #1
 284 0034 FFF7FEFF 		bl	CyDelay
 285              	.LVL25:
  81:main.c        ****         i2c_MasterSendRestart(SLAVE_ADRESS,i2c_WRITE_XFER_MODE);
 286              		.loc 1 81 0
 287 0038 0021     		movs	r1, #0
 288 003a 4020     		movs	r0, #64
 289 003c FFF7FEFF 		bl	i2c_MasterSendRestart
 290              	.LVL26:
  82:main.c        ****         i2c_MasterWriteByte(0x04);
 291              		.loc 1 82 0
 292 0040 0420     		movs	r0, #4
 293 0042 FFF7FEFF 		bl	i2c_MasterWriteByte
 294              	.LVL27:
  83:main.c        ****         CyDelay(1);
 295              		.loc 1 83 0
 296 0046 0120     		movs	r0, #1
 297 0048 FFF7FEFF 		bl	CyDelay
 298              	.LVL28:
 299 004c 08BD     		pop	{r3, pc}
 300              		.cfi_endproc
 301              	.LFE68:
 302              		.size	Write_Mediciones, .-Write_Mediciones
 303 004e 00BF     		.section	.text.Read_Values,"ax",%progbits
 304              		.align	2
 305              		.global	Read_Values
 306              		.thumb
 307              		.thumb_func
 308              		.type	Read_Values, %function
 309              	Read_Values:
 310              	.LFB69:
  84:main.c        **** }
  85:main.c        **** void Read_Values(int Address_Measure){
 311              		.loc 1 85 0
 312              		.cfi_startproc
 313              		@ args = 0, pretend = 0, frame = 0
 314              		@ frame_needed = 0, uses_anonymous_args = 0
ARM GAS  C:\Users\santa\AppData\Local\Temp\cczAvCun.s 			page 8


 315              	.LVL29:
 316 0000 70B5     		push	{r4, r5, r6, lr}
 317              		.cfi_def_cfa_offset 16
 318              		.cfi_offset 4, -16
 319              		.cfi_offset 5, -12
 320              		.cfi_offset 6, -8
 321              		.cfi_offset 14, -4
 322 0002 0446     		mov	r4, r0
 323              	.LVL30:
  86:main.c        ****         uint8 num2=0;
  87:main.c        ****         if(Address_Measure==0x02){
 324              		.loc 1 87 0
 325 0004 0228     		cmp	r0, #2
 326 0006 01D0     		beq	.L28
  86:main.c        ****         uint8 num2=0;
 327              		.loc 1 86 0
 328 0008 0026     		movs	r6, #0
 329 000a 00E0     		b	.L23
 330              	.L28:
  88:main.c        ****    
  89:main.c        ****            num2=3&255;
 331              		.loc 1 89 0
 332 000c 0326     		movs	r6, #3
 333              	.L23:
 334              	.LVL31:
  90:main.c        ****           
  91:main.c        ****         }
  92:main.c        ****         i2c_MasterSendRestart(SLAVE_ADRESS,i2c_READ_XFER_MODE);
 335              		.loc 1 92 0
 336 000e 0121     		movs	r1, #1
 337 0010 4020     		movs	r0, #64
 338              	.LVL32:
 339 0012 FFF7FEFF 		bl	i2c_MasterSendRestart
 340              	.LVL33:
  93:main.c        ****         Datos=i2c_MasterReadByte(Address_Measure);
 341              		.loc 1 93 0
 342 0016 E0B2     		uxtb	r0, r4
 343 0018 FFF7FEFF 		bl	i2c_MasterReadByte
 344              	.LVL34:
 345 001c 00B2     		sxth	r0, r0
 346 001e 0D4D     		ldr	r5, .L30
  94:main.c        ****         Datos<<=8;
 347              		.loc 1 94 0
 348 0020 0002     		lsls	r0, r0, #8
 349 0022 2880     		strh	r0, [r5]	@ movhi
  95:main.c        ****         Datos+=i2c_MasterReadByte(i2c_ACK_DATA);
 350              		.loc 1 95 0
 351 0024 0120     		movs	r0, #1
 352 0026 FFF7FEFF 		bl	i2c_MasterReadByte
 353              	.LVL35:
 354 002a 2B88     		ldrh	r3, [r5]
 355 002c 1844     		add	r0, r0, r3
 356 002e 00B2     		sxth	r0, r0
  96:main.c        ****         Datos>>=num2;
 357              		.loc 1 96 0
 358 0030 3041     		asrs	r0, r0, r6
 359 0032 2880     		strh	r0, [r5]	@ movhi
ARM GAS  C:\Users\santa\AppData\Local\Temp\cczAvCun.s 			page 9


  97:main.c        ****         switch(Address_Measure){
 360              		.loc 1 97 0
 361 0034 032C     		cmp	r4, #3
 362 0036 06D0     		beq	.L25
 363 0038 042C     		cmp	r4, #4
 364 003a 07D0     		beq	.L26
 365 003c 022C     		cmp	r4, #2
 366 003e 07D1     		bne	.L22
  98:main.c        ****           case 0x02:
  99:main.c        ****             Voltaje=Datos;
 367              		.loc 1 99 0
 368 0040 054B     		ldr	r3, .L30+4
 369 0042 1880     		strh	r0, [r3]	@ movhi
 100:main.c        ****          //   Voltaje*=0.004; //obtener la medicion Voltios
 101:main.c        ****             break;
 370              		.loc 1 101 0
 371 0044 70BD     		pop	{r4, r5, r6, pc}
 372              	.LVL36:
 373              	.L25:
 102:main.c        ****           case 0x03:
 103:main.c        ****             Corriente=Datos;
 374              		.loc 1 103 0
 375 0046 054B     		ldr	r3, .L30+8
 376 0048 1880     		strh	r0, [r3]	@ movhi
 104:main.c        ****           //  Corriente*=factor_lsb_Corriente; //Obtener la medicion en amperes
 105:main.c        ****             break;
 377              		.loc 1 105 0
 378 004a 70BD     		pop	{r4, r5, r6, pc}
 379              	.LVL37:
 380              	.L26:
 106:main.c        ****           case 0x04:
 107:main.c        ****             Potencia=Datos;
 381              		.loc 1 107 0
 382 004c 044B     		ldr	r3, .L30+12
 383 004e 5881     		strh	r0, [r3, #10]	@ movhi
 384              	.L22:
 385 0050 70BD     		pop	{r4, r5, r6, pc}
 386              	.LVL38:
 387              	.L31:
 388 0052 00BF     		.align	2
 389              	.L30:
 390 0054 00000000 		.word	Datos
 391 0058 00000000 		.word	Voltaje
 392 005c 00000000 		.word	Corriente
 393 0060 00000000 		.word	.LANCHOR0
 394              		.cfi_endproc
 395              	.LFE69:
 396              		.size	Read_Values, .-Read_Values
 397              		.section	.text.main,"ax",%progbits
 398              		.align	2
 399              		.global	main
 400              		.thumb
 401              		.thumb_func
 402              		.type	main, %function
 403              	main:
 404              	.LFB70:
 108:main.c        ****            // Potencia*=20*factor_lsb_Corriente; //Obtener la medicion en Watts
ARM GAS  C:\Users\santa\AppData\Local\Temp\cczAvCun.s 			page 10


 109:main.c        ****             break;
 110:main.c        ****           default:
 111:main.c        ****             break;
 112:main.c        ****         }
 113:main.c        ****        //datos convertidos
 114:main.c        ****   }
 115:main.c        **** int main(void)
 116:main.c        **** {
 405              		.loc 1 116 0
 406              		.cfi_startproc
 407              		@ args = 0, pretend = 0, frame = 0
 408              		@ frame_needed = 0, uses_anonymous_args = 0
 409 0000 10B5     		push	{r4, lr}
 410              		.cfi_def_cfa_offset 8
 411              		.cfi_offset 4, -8
 412              		.cfi_offset 14, -4
 117:main.c        ****     CyGlobalIntEnable; /* Enable global interrupts. */
 413              		.loc 1 117 0
 414              		.syntax unified
 415              	@ 117 "main.c" 1
 416 0002 62B6     		CPSIE   i
 417              	@ 0 "" 2
 118:main.c        ****     isr_Rx_StartEx(Rx);
 418              		.loc 1 118 0
 419              		.thumb
 420              		.syntax unified
 421 0004 2748     		ldr	r0, .L37
 422 0006 FFF7FEFF 		bl	isr_Rx_StartEx
 423              	.LVL39:
 119:main.c        **** 
 120:main.c        ****      /* Place your initialization/startup code here (e.g. MyInst_Start()) */
 121:main.c        ****     UART_Start();
 424              		.loc 1 121 0
 425 000a FFF7FEFF 		bl	UART_Start
 426              	.LVL40:
 122:main.c        ****     i2c_Start();
 427              		.loc 1 122 0
 428 000e FFF7FEFF 		bl	i2c_Start
 429              	.LVL41:
 123:main.c        ****     LCD_Start();
 430              		.loc 1 123 0
 431 0012 FFF7FEFF 		bl	LCD_Start
 432              	.LVL42:
 433              	.L34:
 124:main.c        ****     for(;;)
 125:main.c        ****     {
 126:main.c        ****        Calc_Factor_LSB(2);
 434              		.loc 1 126 0
 435 0016 0220     		movs	r0, #2
 436 0018 FFF7FEFF 		bl	Calc_Factor_LSB
 437              	.LVL43:
 438              	.L33:
 127:main.c        ****         do{
 128:main.c        ****         i2c_MasterSendStart(SLAVE_ADRESS, i2c_WRITE_XFER_MODE);
 439              		.loc 1 128 0 discriminator 1
 440 001c 0021     		movs	r1, #0
 441 001e 4020     		movs	r0, #64
ARM GAS  C:\Users\santa\AppData\Local\Temp\cczAvCun.s 			page 11


 442 0020 FFF7FEFF 		bl	i2c_MasterSendStart
 443              	.LVL44:
 129:main.c        ****         }while(result!=i2c_MSTR_NO_ERROR);
 444              		.loc 1 129 0 discriminator 1
 445 0024 204B     		ldr	r3, .L37+4
 446 0026 1B7B     		ldrb	r3, [r3, #12]	@ zero_extendqisi2
 447 0028 002B     		cmp	r3, #0
 448 002a F7D1     		bne	.L33
 130:main.c        ****            Write_Configuration();
 449              		.loc 1 130 0
 450 002c FFF7FEFF 		bl	Write_Configuration
 451              	.LVL45:
 131:main.c        ****            Write_Calibracion();
 452              		.loc 1 131 0
 453 0030 FFF7FEFF 		bl	Write_Calibracion
 454              	.LVL46:
 132:main.c        ****            Write_Mediciones();
 455              		.loc 1 132 0
 456 0034 FFF7FEFF 		bl	Write_Mediciones
 457              	.LVL47:
 133:main.c        ****            Read_Voltage_Shut();
 458              		.loc 1 133 0
 459 0038 FFF7FEFF 		bl	Read_Voltage_Shut
 460              	.LVL48:
 134:main.c        ****            Read_Values(0x02);
 461              		.loc 1 134 0
 462 003c 0220     		movs	r0, #2
 463 003e FFF7FEFF 		bl	Read_Values
 464              	.LVL49:
 135:main.c        ****            Read_Values(0x03);
 465              		.loc 1 135 0
 466 0042 0320     		movs	r0, #3
 467 0044 FFF7FEFF 		bl	Read_Values
 468              	.LVL50:
 136:main.c        ****            Read_Values(0x04);
 469              		.loc 1 136 0
 470 0048 0420     		movs	r0, #4
 471 004a FFF7FEFF 		bl	Read_Values
 472              	.LVL51:
 137:main.c        ****            i2c_MasterSendStop();
 473              		.loc 1 137 0
 474 004e FFF7FEFF 		bl	i2c_MasterSendStop
 475              	.LVL52:
 138:main.c        ****            if(flag==1){
 476              		.loc 1 138 0
 477 0052 154B     		ldr	r3, .L37+4
 478 0054 1B68     		ldr	r3, [r3]
 479 0056 012B     		cmp	r3, #1
 480 0058 DDD1     		bne	.L34
 481              	.LVL53:
 482              	.LBB2:
 139:main.c        ****               int8 temp=0; 
 140:main.c        ****               UART_PutChar(Voltaje);
 483              		.loc 1 140 0
 484 005a 144C     		ldr	r4, .L37+8
 485 005c 2078     		ldrb	r0, [r4]	@ zero_extendqisi2
 486 005e FFF7FEFF 		bl	UART_PutChar
ARM GAS  C:\Users\santa\AppData\Local\Temp\cczAvCun.s 			page 12


 487              	.LVL54:
 141:main.c        ****               CyDelay(1);
 488              		.loc 1 141 0
 489 0062 0120     		movs	r0, #1
 490 0064 FFF7FEFF 		bl	CyDelay
 491              	.LVL55:
 142:main.c        ****               temp=(Voltaje>>8);
 143:main.c        ****               UART_PutChar(temp);
 492              		.loc 1 143 0
 493 0068 6078     		ldrb	r0, [r4, #1]	@ zero_extendqisi2
 494 006a FFF7FEFF 		bl	UART_PutChar
 495              	.LVL56:
 144:main.c        ****               CyDelay(1);
 496              		.loc 1 144 0
 497 006e 0120     		movs	r0, #1
 498 0070 FFF7FEFF 		bl	CyDelay
 499              	.LVL57:
 145:main.c        ****               UART_PutChar(Corriente);
 500              		.loc 1 145 0
 501 0074 0E4C     		ldr	r4, .L37+12
 502 0076 2078     		ldrb	r0, [r4]	@ zero_extendqisi2
 503 0078 FFF7FEFF 		bl	UART_PutChar
 504              	.LVL58:
 146:main.c        ****               CyDelay(1);
 505              		.loc 1 146 0
 506 007c 0120     		movs	r0, #1
 507 007e FFF7FEFF 		bl	CyDelay
 508              	.LVL59:
 147:main.c        ****               temp=(Corriente>>8);
 148:main.c        ****               UART_PutChar(temp);
 509              		.loc 1 148 0
 510 0082 6078     		ldrb	r0, [r4, #1]	@ zero_extendqisi2
 511 0084 FFF7FEFF 		bl	UART_PutChar
 512              	.LVL60:
 149:main.c        ****               CyDelay(1);
 513              		.loc 1 149 0
 514 0088 0120     		movs	r0, #1
 515 008a FFF7FEFF 		bl	CyDelay
 516              	.LVL61:
 150:main.c        ****               UART_PutChar(Potencia);
 517              		.loc 1 150 0
 518 008e 064C     		ldr	r4, .L37+4
 519 0090 A07A     		ldrb	r0, [r4, #10]	@ zero_extendqisi2
 520 0092 FFF7FEFF 		bl	UART_PutChar
 521              	.LVL62:
 151:main.c        ****               CyDelay(1);
 522              		.loc 1 151 0
 523 0096 0120     		movs	r0, #1
 524 0098 FFF7FEFF 		bl	CyDelay
 525              	.LVL63:
 152:main.c        ****               temp=(Potencia>>8);
 153:main.c        ****               UART_PutChar(temp);
 526              		.loc 1 153 0
 527 009c E07A     		ldrb	r0, [r4, #11]	@ zero_extendqisi2
 528 009e FFF7FEFF 		bl	UART_PutChar
 529              	.LVL64:
 530 00a2 B8E7     		b	.L34
ARM GAS  C:\Users\santa\AppData\Local\Temp\cczAvCun.s 			page 13


 531              	.L38:
 532              		.align	2
 533              	.L37:
 534 00a4 00000000 		.word	Rx
 535 00a8 00000000 		.word	.LANCHOR0
 536 00ac 00000000 		.word	Voltaje
 537 00b0 00000000 		.word	Corriente
 538              	.LBE2:
 539              		.cfi_endproc
 540              	.LFE70:
 541              		.size	main, .-main
 542              		.global	flag
 543              		.global	Potencia
 544              		.comm	Voltaje,2,2
 545              		.comm	Corriente,2,2
 546              		.global	factor_lsb_Corriente
 547              		.global	Voltaje_Shunt
 548              		.comm	Datos2,2,2
 549              		.comm	Datos,2,2
 550              		.global	result
 551              		.bss
 552              		.align	2
 553              		.set	.LANCHOR0,. + 0
 554              		.type	flag, %object
 555              		.size	flag, 4
 556              	flag:
 557 0000 00000000 		.space	4
 558              		.type	factor_lsb_Corriente, %object
 559              		.size	factor_lsb_Corriente, 4
 560              	factor_lsb_Corriente:
 561 0004 00000000 		.space	4
 562              		.type	Voltaje_Shunt, %object
 563              		.size	Voltaje_Shunt, 2
 564              	Voltaje_Shunt:
 565 0008 0000     		.space	2
 566              		.type	Potencia, %object
 567              		.size	Potencia, 2
 568              	Potencia:
 569 000a 0000     		.space	2
 570              		.type	result, %object
 571              		.size	result, 1
 572              	result:
 573 000c 00       		.space	1
 574              		.text
 575              	.Letext0:
 576              		.file 2 "c:\\program files (x86)\\cypress\\psoc creator\\4.2\\psoc creator\\import\\gnu\\arm\\5.4.
 577              		.file 3 "c:\\program files (x86)\\cypress\\psoc creator\\4.2\\psoc creator\\import\\gnu\\arm\\5.4.
 578              		.file 4 "Generated_Source\\PSoC5/cytypes.h"
 579              		.file 5 "Generated_Source\\PSoC5/core_cm3.h"
 580              		.file 6 "Generated_Source\\PSoC5/UART.h"
 581              		.file 7 "Generated_Source\\PSoC5/isr_Rx.h"
 582              		.file 8 "Generated_Source\\PSoC5/i2c.h"
 583              		.file 9 "Generated_Source\\PSoC5/CyLib.h"
 584              		.file 10 "Generated_Source\\PSoC5/LCD.h"